Certificate Request:
    Data:
        Version: 0 (0x0)
        Subject: CN=plain-cell-0529.gov, C=CX
        Subject Public Key Info:
            Public Key Algorithm: rsaEncryption
                RSA Public-Key: (1024 bit)
                Modulus:
                    00:e1:6f:3d:db:c5:dc:ee:1f:63:04:45:36:16:b5:
                    98:20:7a:ae:81:3f:40:dc:fd:c6:1e:d0:00:85:25:
                    5a:5c:92:22:bf:1a:34:0f:04:20:fb:51:4b:ea:33:
                    4a:88:02:4f:4a:82:ba:5c:98:05:13:d8:b3:d0:83:
                    e6:e9:19:67:b3:c8:7a:8e:c7:02:56:ba:7e:34:70:
                    8c:3e:dd:b2:39:d4:1a:94:f9:1a:b3:5d:d9:af:0f:
                    ee:34:ef:5a:70:1d:d2:af:62:50:5d:5a:98:21:67:
                    01:a2:7c:69:5d:cd:d5:08:9b:9a:e5:36:10:18:46:
                    c9:14:17:b1:a9:2d:45:80:93
                Exponent: 65537 (0x10001)
        Attributes:
            a0:00
    Signature Algorithm: sha256WithRSAEncryption
         ca:9f:93:78:80:1f:94:e7:e3:19:5c:38:fe:5d:67:a1:8e:b1:
         cb:61:8b:b8:c3:35:07:a1:6e:b9:1c:71:8a:47:03:4c:7a:5e:
         29:6b:b9:c3:56:ec:0a:d8:e4:6b:96:5b:95:2a:84:4b:e8:3e:
         8c:3d:07:f5:df:38:75:68:0a:7a:31:f3:3b:dd:4d:58:86:01:
         88:67:d4:56:94:f0:9b:f3:da:b9:14:54:a2:26:ae:d1:43:60:
         9d:d3:b6:4f:0c:62:ab:93:b9:5d:93:d0:a9:84:2c:31:c1:be:
         c6:2f:80:5e:00:77:6a:b6:a4:30:34:e6:bd:77:d0:38:c5:32:
         c9:20
-----BEGIN CERTIFICATE REQUEST-----
MIIBajCB1AIBADArMRwwGgYDVQQDDBNwbGFpbi1jZWxsLTA1MjkuZ292MQswCQYD
VQQGEwJDWDCBnzANBgkqhkiG9w0BAQEFAAOBjQAwgYkCgYEA4W8928Xc7h9jBEU2
FrWYIHqugT9A3P3GHtAAhSVaXJIivxo0DwQg+1FL6jNKiAJPSoK6XJgFE9iz0IPm
6Rlns8h6jscCVrp+NHCMPt2yOdQalPkas13Zrw/uNO9acB3Sr2JQXVqYIWcBonxp
Xc3VCJua5TYQGEbJFBexqS1FgJMCAwEAAaAAMA0GCSqGSIb3DQEBCwUAA4GBAMqf
k3iAH5Tn4xlcOP5dZ6GOscthi7jDNQehbrkccYpHA0x6XilrucNW7ArY5GuWW5Uq
hEvoPow9B/XfOHVoCnox8zvdTViGAYhn1FaU8Jvz2rkUVKImrtFDYJ3Ttk8MYquT
uV2T0KmELDHBvsYvgF4Ad2q2pDA05r130DjFMskg
-----END CERTIFICATE REQUEST-----
